target datalayout = "e-m:e-p270:32:32-p271:32:32-p272:64:64-i64:64-i128:128-f80:128-n8:16:32:64-S128"
target triple = "x86_64-pc-linux-gnu"

%struct.crypto_ex_data_st = type { ptr }
%struct.ssl_st = type { i32, i16, i16, ptr, ptr, ptr, ptr, ptr, i32, i32, ptr, ptr, i32, i32, ptr, ptr, ptr, ptr, ptr, ptr, ptr, ptr, i32, i32, [32 x i8], ptr, ptr, ptr, ptr, ptr, ptr, ptr, i64, %struct.crypto_ex_data_st, ptr, i32, i32, i32, i32, i16, ptr, i32, i64, ptr, ptr, ptr, ptr, ptr, ptr, i32, i32, ptr, ptr, i8, i8, i32 }
%struct.ssl_protocol_method_st = type { i8, ptr, ptr, ptr, ptr, ptr, ptr, ptr, ptr, ptr, ptr, ptr, i32, ptr, ptr }

; Function Attrs: nounwind uwtable
define hidden zeroext i16 @ssl3_get_max_client_version(ptr noundef %0) #0 {
  %2 = alloca ptr, align 8
  %3 = alloca i32, align 4
  %4 = alloca i16, align 2
  store ptr %0, ptr %2, align 8, !tbaa !80
  call void @llvm.lifetime.start.p0(i64 4, ptr %3) #8
  %5 = load ptr, ptr %2, align 8, !tbaa !80
  %6 = getelementptr inbounds nuw %struct.ssl_st, ptr %5, i32 0, i32 35
  %7 = load i32, ptr %6, align 8, !tbaa !92
  store i32 %7, ptr %3, align 4, !tbaa !61
  call void @llvm.lifetime.start.p0(i64 2, ptr %4) #8
  store i16 0, ptr %4, align 2, !tbaa !63
  %8 = load ptr, ptr %2, align 8, !tbaa !80
  %9 = getelementptr inbounds nuw %struct.ssl_st, ptr %8, i32 0, i32 3
  %10 = load ptr, ptr %9, align 8, !tbaa !117
  %11 = getelementptr inbounds nuw %struct.ssl_protocol_method_st, ptr %10, i32 0, i32 0
  %12 = load i8, ptr %11, align 8, !tbaa !192
  %13 = icmp ne i8 %12, 0
  br i1 %13, label %14, label %50

14:                                               ; preds = %1
  %15 = load i32, ptr %3, align 4, !tbaa !61
  %16 = zext i32 %15 to i64
  %17 = and i64 %16, 134217728
  %18 = icmp ne i64 %17, 0
  br i1 %18, label %20, label %19

19:                                               ; preds = %14
  store i16 -259, ptr %4, align 2, !tbaa !63
  br label %20

20:                                               ; preds = %19, %14
  %21 = load i32, ptr %3, align 4, !tbaa !61
  %22 = zext i32 %21 to i64
  %23 = and i64 %22, 67108864
  %24 = icmp ne i64 %23, 0
  br i1 %24, label %31, label %25

25:                                               ; preds = %20
  %26 = load i32, ptr %3, align 4, !tbaa !61
  %27 = zext i32 %26 to i64
  %28 = and i64 %27, 134217728
  %29 = icmp ne i64 %28, 0
  br i1 %29, label %30, label %31

30:                                               ; preds = %25
  store i16 -257, ptr %4, align 2, !tbaa !63
  br label %31

31:                                               ; preds = %30, %25, %20
  %32 = load ptr, ptr %2, align 8, !tbaa !80
  %33 = getelementptr inbounds nuw %struct.ssl_st, ptr %32, i32 0, i32 1
  %34 = load i16, ptr %33, align 4, !tbaa !91
  %35 = zext i16 %34 to i32
  %36 = icmp ne i32 %35, 0
  br i1 %36, label %37, label %49

37:                                               ; preds = %31
  %38 = load i16, ptr %4, align 2, !tbaa !63
  %39 = zext i16 %38 to i32
  %40 = load ptr, ptr %2, align 8, !tbaa !80
  %41 = getelementptr inbounds nuw %struct.ssl_st, ptr %40, i32 0, i32 1
  %42 = load i16, ptr %41, align 4, !tbaa !91
  %43 = zext i16 %42 to i32
  %44 = icmp slt i32 %39, %43
  br i1 %44, label %45, label %49

45:                                               ; preds = %37
  %46 = load ptr, ptr %2, align 8, !tbaa !80
  %47 = getelementptr inbounds nuw %struct.ssl_st, ptr %46, i32 0, i32 1
  %48 = load i16, ptr %47, align 4, !tbaa !91
  store i16 %48, ptr %4, align 2, !tbaa !63
  br label %49

49:                                               ; preds = %45, %37, %31
  br label %108

50:                                               ; preds = %1
  %51 = load i32, ptr %3, align 4, !tbaa !61
  %52 = zext i32 %51 to i64
  %53 = and i64 %52, 134217728
  %54 = icmp ne i64 %53, 0
  br i1 %54, label %56, label %55

55:                                               ; preds = %50
  store i16 771, ptr %4, align 2, !tbaa !63
  br label %56

56:                                               ; preds = %55, %50
  %57 = load i32, ptr %3, align 4, !tbaa !61
  %58 = zext i32 %57 to i64
  %59 = and i64 %58, 268435456
  %60 = icmp ne i64 %59, 0
  br i1 %60, label %67, label %61

61:                                               ; preds = %56
  %62 = load i32, ptr %3, align 4, !tbaa !61
  %63 = zext i32 %62 to i64
  %64 = and i64 %63, 134217728
  %65 = icmp ne i64 %64, 0
  br i1 %65, label %66, label %67

66:                                               ; preds = %61
  store i16 770, ptr %4, align 2, !tbaa !63
  br label %67

67:                                               ; preds = %66, %61, %56
  %68 = load i32, ptr %3, align 4, !tbaa !61
  %69 = zext i32 %68 to i64
  %70 = and i64 %69, 67108864
  %71 = icmp ne i64 %70, 0
  br i1 %71, label %78, label %72

72:                                               ; preds = %67
  %73 = load i32, ptr %3, align 4, !tbaa !61
  %74 = zext i32 %73 to i64
  %75 = and i64 %74, 268435456
  %76 = icmp ne i64 %75, 0
  br i1 %76, label %77, label %78

77:                                               ; preds = %72
  store i16 769, ptr %4, align 2, !tbaa !63
  br label %78

78:                                               ; preds = %77, %72, %67
  %79 = load i32, ptr %3, align 4, !tbaa !61
  %80 = zext i32 %79 to i64
  %81 = and i64 %80, 33554432
  %82 = icmp ne i64 %81, 0
  br i1 %82, label %89, label %83

83:                                               ; preds = %78
  %84 = load i32, ptr %3, align 4, !tbaa !61
  %85 = zext i32 %84 to i64
  %86 = and i64 %85, 67108864
  %87 = icmp ne i64 %86, 0
  br i1 %87, label %88, label %89

88:                                               ; preds = %83
  store i16 768, ptr %4, align 2, !tbaa !63
  br label %89

89:                                               ; preds = %88, %83, %78
  %90 = load ptr, ptr %2, align 8, !tbaa !80
  %91 = getelementptr inbounds nuw %struct.ssl_st, ptr %90, i32 0, i32 1
  %92 = load i16, ptr %91, align 4, !tbaa !91
  %93 = zext i16 %92 to i32
  %94 = icmp ne i32 %93, 0
  br i1 %94, label %95, label %107

95:                                               ; preds = %89
  %96 = load i16, ptr %4, align 2, !tbaa !63
  %97 = zext i16 %96 to i32
  %98 = load ptr, ptr %2, align 8, !tbaa !80
  %99 = getelementptr inbounds nuw %struct.ssl_st, ptr %98, i32 0, i32 1
  %100 = load i16, ptr %99, align 4, !tbaa !91
  %101 = zext i16 %100 to i32
  %102 = icmp sgt i32 %97, %101
  br i1 %102, label %103, label %107

103:                                              ; preds = %95
  %104 = load ptr, ptr %2, align 8, !tbaa !80
  %105 = getelementptr inbounds nuw %struct.ssl_st, ptr %104, i32 0, i32 1
  %106 = load i16, ptr %105, align 4, !tbaa !91
  store i16 %106, ptr %4, align 2, !tbaa !63
  br label %107

107:                                              ; preds = %103, %95, %89
  br label %108

108:                                              ; preds = %107, %49
  %109 = load i16, ptr %4, align 2, !tbaa !63
  call void @llvm.lifetime.end.p0(i64 2, ptr %4) #8
  call void @llvm.lifetime.end.p0(i64 4, ptr %3) #8
  ret i16 %109
}