; Function Attrs: mustprogress nofree norecurse nosync nounwind willreturn memory(read, inaccessiblemem: none) uwtable
define hidden zeroext i16 @ssl3_get_max_client_version(ptr noundef readonly captures(none) %0) local_unnamed_addr #10 {
  %2 = getelementptr inbounds nuw i8, ptr %0, i64 264
  %3 = load i32, ptr %2, align 8, !tbaa !81
  %4 = getelementptr inbounds nuw i8, ptr %0, i64 8
  %5 = load ptr, ptr %4, align 8, !tbaa !106
  %6 = load i8, ptr %5, align 8, !tbaa !174
  %.not = icmp eq i8 %6, 0
  %7 = zext i32 %3 to i64
  %8 = and i64 %7, 134217728
  %.not22 = icmp eq i64 %8, 0
  br i1 %.not, label %13, label %9

9:                                                ; preds = %1
  %spec.select = select i1 %.not22, i16 -259, i16 0
  %10 = and i64 %7, 67108864
  %.not28 = icmp eq i64 %10, 0
  %spec.select30 = select i1 %.not22, i16 -259, i16 -257
  %.1 = select i1 %.not28, i16 %spec.select30, i16 %spec.select
  %11 = getelementptr inbounds nuw i8, ptr %0, i64 4
  %12 = load i16, ptr %11, align 4, !tbaa !80
  %spec.select36 = tail call i16 @llvm.umax.i16(i16 %.1, i16 %12)
  br label %20

13:                                               ; preds = %1
  %spec.select31 = select i1 %.not22, i16 771, i16 0
  %14 = and i64 %7, 268435456
  %.not23 = icmp eq i64 %14, 0
  %spec.select32 = select i1 %.not22, i16 771, i16 770
  %.4 = select i1 %.not23, i16 %spec.select32, i16 %spec.select31
  %15 = and i64 %7, 67108864
  %.not24 = icmp eq i64 %15, 0
  %spec.select33 = select i1 %.not23, i16 %spec.select32, i16 769
  %.5 = select i1 %.not24, i16 %spec.select33, i16 %.4
  %16 = and i64 %7, 33554432
  %.not25 = icmp eq i64 %16, 0
  %spec.select34 = select i1 %.not24, i16 %spec.select33, i16 768
  %.6 = select i1 %.not25, i16 %spec.select34, i16 %.5
  %17 = getelementptr inbounds nuw i8, ptr %0, i64 4
  %18 = load i16, ptr %17, align 4, !tbaa !80
  %.not26.not = icmp eq i16 %18, 0
  %19 = tail call i16 @llvm.umin.i16(i16 %.6, i16 %18)
  %spec.select37 = select i1 %.not26.not, i16 %.6, i16 %19
  br label %20

20:                                               ; preds = %13, %9
  %.2 = phi i16 [ %spec.select36, %9 ], [ %spec.select37, %13 ]
  ret i16 %.2
}